; ModuleID = 'source-C-CXX/39/2407.c'
source_filename = "source-C-CXX/39/2407.c"
target datalayout = "e-m:e-p270:32:32-p271:32:32-p272:64:64-i64:64-f80:128-n8:16:32:64-S128"
target triple = "x86_64-pc-linux-gnu"

@.str = private unnamed_addr constant [4 x i8] c"%lf\00", align 1
@.str.1 = private unnamed_addr constant [14 x i8] c"Invalid input\00", align 1
@.str.2 = private unnamed_addr constant [6 x i8] c"%.4lf\00", align 1

; Function Attrs: nofree nounwind sspstrong uwtable
define dso_local i32 @main() local_unnamed_addr #0 {
  %1 = alloca double, align 8
  %2 = alloca double, align 8
  %3 = alloca double, align 8
  %4 = alloca double, align 8
  %5 = alloca double, align 8
  %6 = bitcast double* %1 to i8*
  call void @llvm.lifetime.start.p0i8(i64 8, i8* nonnull %6) #4
  %7 = bitcast double* %2 to i8*
  call void @llvm.lifetime.start.p0i8(i64 8, i8* nonnull %7) #4
  %8 = bitcast double* %3 to i8*
  call void @llvm.lifetime.start.p0i8(i64 8, i8* nonnull %8) #4
  %9 = bitcast double* %4 to i8*
  call void @llvm.lifetime.start.p0i8(i64 8, i8* nonnull %9) #4
  %10 = bitcast double* %5 to i8*
  call void @llvm.lifetime.start.p0i8(i64 8, i8* nonnull %10) #4
  %11 = call i32 (i8*, ...) @__isoc99_scanf(i8* getelementptr inbounds ([4 x i8], [4 x i8]* @.str, i64 0, i64 0), double* nonnull %1)
  %12 = call i32 (i8*, ...) @__isoc99_scanf(i8* getelementptr inbounds ([4 x i8], [4 x i8]* @.str, i64 0, i64 0), double* nonnull %2)
  %13 = call i32 (i8*, ...) @__isoc99_scanf(i8* getelementptr inbounds ([4 x i8], [4 x i8]* @.str, i64 0, i64 0), double* nonnull %3)
  %14 = call i32 (i8*, ...) @__isoc99_scanf(i8* getelementptr inbounds ([4 x i8], [4 x i8]* @.str, i64 0, i64 0), double* nonnull %4)
  %15 = load double, double* %1, align 8, !tbaa !5
  %16 = load double, double* %2, align 8, !tbaa !5
  %17 = fadd double %15, %16
  %18 = load double, double* %3, align 8, !tbaa !5
  %19 = fadd double %17, %18
  %20 = load double, double* %4, align 8, !tbaa !5
  %21 = fadd double %19, %20
  %22 = fmul double %21, 5.000000e-01
  %23 = call i32 (i8*, ...) @__isoc99_scanf(i8* getelementptr inbounds ([4 x i8], [4 x i8]* @.str, i64 0, i64 0), double* nonnull %5)
  %24 = load double, double* %5, align 8, !tbaa !5
  %25 = fmul double %24, 5.000000e-01
  %26 = fmul double %25, 0x3F91DF469D353918
  store double %26, double* %5, align 8, !tbaa !5
  %27 = load double, double* %1, align 8, !tbaa !5
  %28 = fsub double %22, %27
  %29 = load double, double* %2, align 8, !tbaa !5
  %30 = fsub double %22, %29
  %31 = fmul double %28, %30
  %32 = load double, double* %3, align 8, !tbaa !5
  %33 = fsub double %22, %32
  %34 = fmul double %31, %33
  %35 = load double, double* %4, align 8, !tbaa !5
  %36 = fsub double %22, %35
  %37 = fmul double %34, %36
  %38 = fmul double %27, %29
  %39 = fmul double %38, %32
  %40 = fmul double %39, %35
  %41 = call double @cos(double %26) #4
  %42 = fmul double %40, %41
  %43 = load double, double* %5, align 8, !tbaa !5
  %44 = call double @cos(double %43) #4
  %45 = fmul double %42, %44
  %46 = fsub double %37, %45
  %47 = fcmp olt double %46, 0.000000e+00
  br i1 %47, label %48, label %50

48:                                               ; preds = %0
  %49 = call i32 (i8*, ...) @printf(i8* nonnull dereferenceable(1) getelementptr inbounds ([14 x i8], [14 x i8]* @.str.1, i64 0, i64 0))
  br label %74

50:                                               ; preds = %0
  %51 = load double, double* %1, align 8, !tbaa !5
  %52 = fsub double %22, %51
  %53 = load double, double* %2, align 8, !tbaa !5
  %54 = fsub double %22, %53
  %55 = fmul double %52, %54
  %56 = load double, double* %3, align 8, !tbaa !5
  %57 = fsub double %22, %56
  %58 = fmul double %55, %57
  %59 = load double, double* %4, align 8, !tbaa !5
  %60 = fsub double %22, %59
  %61 = fmul double %58, %60
  %62 = fmul double %51, %53
  %63 = fmul double %62, %56
  %64 = fmul double %63, %59
  %65 = load double, double* %5, align 8, !tbaa !5
  %66 = call double @cos(double %65) #4
  %67 = fmul double %64, %66
  %68 = load double, double* %5, align 8, !tbaa !5
  %69 = call double @cos(double %68) #4
  %70 = fmul double %67, %69
  %71 = fsub double %61, %70
  %72 = call double @sqrt(double %71) #4
  %73 = call i32 (i8*, ...) @printf(i8* nonnull dereferenceable(1) getelementptr inbounds ([6 x i8], [6 x i8]* @.str.2, i64 0, i64 0), double %72)
  br label %74

74:                                               ; preds = %50, %48
  call void @llvm.lifetime.end.p0i8(i64 8, i8* nonnull %10) #4
  call void @llvm.lifetime.end.p0i8(i64 8, i8* nonnull %9) #4
  call void @llvm.lifetime.end.p0i8(i64 8, i8* nonnull %8) #4
  call void @llvm.lifetime.end.p0i8(i64 8, i8* nonnull %7) #4
  call void @llvm.lifetime.end.p0i8(i64 8, i8* nonnull %6) #4
  ret i32 0
}

; Function Attrs: argmemonly mustprogress nofree nosync nounwind willreturn
declare void @llvm.lifetime.start.p0i8(i64 immarg, i8* nocapture) #1

; Function Attrs: nofree nounwind
declare noundef i32 @__isoc99_scanf(i8* nocapture noundef readonly, ...) local_unnamed_addr #2

; Function Attrs: mustprogress nofree nounwind willreturn
declare double @cos(double) local_unnamed_addr #3

; Function Attrs: nofree nounwind
declare noundef i32 @printf(i8* nocapture noundef readonly, ...) local_unnamed_addr #2

; Function Attrs: mustprogress nofree nounwind willreturn
declare double @sqrt(double) local_unnamed_addr #3

; Function Attrs: argmemonly mustprogress nofree nosync nounwind willreturn
declare void @llvm.lifetime.end.p0i8(i64 immarg, i8* nocapture) #1


!llvm.module.flags = !{!0, !1, !2, !3}
!llvm.ident = !{!4}

!0 = !{i32 1, !"wchar_size", i32 4}
!1 = !{i32 7, !"PIC Level", i32 2}
!2 = !{i32 7, !"PIE Level", i32 2}
!3 = !{i32 7, !"uwtable", i32 1}
!4 = !{!"clang version 13.0.0"}
!5 = !{!6, !6, i64 0}
!6 = !{!"double", !7, i64 0}
!7 = !{!"omnipotent char", !8, i64 0}
!8 = !{!"Simple C/C++ TBAA"}
